; Function Attrs: mustprogress uwtable
define noundef double @_ZNK8QuantLib9SwapIndex14forecastFixingERKNS_4DateE(ptr noundef nonnull align 8 dereferenceable(320) %this, ptr noundef nonnull align 8 dereferenceable(8) %fixingDate) unnamed_addr #6 align 2 personality ptr @__gxx_personality_v0 {
entry:
  %ref.tmp = alloca %"class.boost::shared_ptr.20", align 8
  call void @llvm.lifetime.start.p0(i64 16, ptr nonnull %ref.tmp) #25
  call void @_ZNK8QuantLib9SwapIndex14underlyingSwapERKNS_4DateE(ptr dead_on_unwind nonnull writable sret(%"class.boost::shared_ptr.20") align 8 %ref.tmp, ptr noundef nonnull align 8 dereferenceable(320) %this, ptr noundef nonnull align 8 dereferenceable(8) %fixingDate)
  %0 = load ptr, ptr %ref.tmp, align 8, !tbaa !88
  %cmp.not.i = icmp eq ptr %0, null
  br i1 %cmp.not.i, label %cond.false.i, label %invoke.cont, !prof !84

cond.false.i:                                     ; preds = %entry
  invoke void @_ZN5boost16assertion_failedEPKcS1_S1_l(ptr noundef nonnull @.str.7, ptr noundef nonnull @__PRETTY_FUNCTION__._ZNK5boost10shared_ptrIN8QuantLib11VanillaSwapEEptEv, ptr noundef nonnull @.str.8, i64 noundef 784)
          to label %invoke.cont unwind label %lpad

invoke.cont:                                      ; preds = %cond.false.i, %entry
  %call3 = invoke noundef double @_ZNK8QuantLib19FixedVsFloatingSwap8fairRateEv(ptr noundef nonnull align 8 dereferenceable(674) %0)
          to label %invoke.cont2 unwind label %lpad

invoke.cont2:                                     ; preds = %invoke.cont
  %pn.i = getelementptr inbounds nuw i8, ptr %ref.tmp, i64 8
  %1 = load ptr, ptr %pn.i, align 8, !tbaa !44
  %cmp.not.i.i = icmp eq ptr %1, null
  br i1 %cmp.not.i.i, label %_ZN5boost10shared_ptrIN8QuantLib11VanillaSwapEED2Ev.exit, label %if.then.i.i

if.then.i.i:                                      ; preds = %invoke.cont2
  %use_count_.i.i.i = getelementptr inbounds nuw i8, ptr %1, i64 8
  %2 = atomicrmw sub ptr %use_count_.i.i.i, i32 1 acq_rel, align 4
  %cmp.i.i.i = icmp eq i32 %2, 1
  br i1 %cmp.i.i.i, label %if.then.i.i.i, label %_ZN5boost10shared_ptrIN8QuantLib11VanillaSwapEED2Ev.exit

if.then.i.i.i:                                    ; preds = %if.then.i.i
  %vtable.i.i.i = load ptr, ptr %1, align 8, !tbaa !28
  %vfn.i.i.i = getelementptr inbounds i8, ptr %vtable.i.i.i, i64 16
  %3 = load ptr, ptr %vfn.i.i.i, align 8
  invoke void %3(ptr noundef nonnull align 8 dereferenceable(16) %1)
          to label %.noexc.i.i unwind label %terminate.lpad.i.i

.noexc.i.i:                                       ; preds = %if.then.i.i.i
  %weak_count_.i.i.i.i = getelementptr inbounds nuw i8, ptr %1, i64 12
  %4 = atomicrmw sub ptr %weak_count_.i.i.i.i, i32 1 acq_rel, align 4
  %cmp.i.i.i.i = icmp eq i32 %4, 1
  br i1 %cmp.i.i.i.i, label %if.then.i.i.i.i, label %_ZN5boost10shared_ptrIN8QuantLib11VanillaSwapEED2Ev.exit

if.then.i.i.i.i:                                  ; preds = %.noexc.i.i
  %vtable.i.i.i.i = load ptr, ptr %1, align 8, !tbaa !28
  %vfn.i.i.i.i = getelementptr inbounds i8, ptr %vtable.i.i.i.i, i64 24
  %5 = load ptr, ptr %vfn.i.i.i.i, align 8
  invoke void %5(ptr noundef nonnull align 8 dereferenceable(16) %1)
          to label %_ZN5boost10shared_ptrIN8QuantLib11VanillaSwapEED2Ev.exit unwind label %terminate.lpad.i.i

terminate.lpad.i.i:                               ; preds = %if.then.i.i.i.i, %if.then.i.i.i
  %6 = landingpad { ptr, i32 }
          catch ptr null
  %7 = extractvalue { ptr, i32 } %6, 0
  tail call void @__clang_call_terminate(ptr %7) #26
  unreachable

_ZN5boost10shared_ptrIN8QuantLib11VanillaSwapEED2Ev.exit: ; preds = %invoke.cont2, %if.then.i.i, %.noexc.i.i, %if.then.i.i.i.i
  call void @llvm.lifetime.end.p0(i64 16, ptr nonnull %ref.tmp) #25
  ret double %call3

lpad:                                             ; preds = %cond.false.i, %invoke.cont
  %8 = landingpad { ptr, i32 }
          cleanup
  call void @_ZN5boost10shared_ptrIN8QuantLib11VanillaSwapEED2Ev(ptr noundef nonnull align 8 dereferenceable(16) %ref.tmp) #25
  call void @llvm.lifetime.end.p0(i64 16, ptr nonnull %ref.tmp) #25
  resume { ptr, i32 } %8
}